target datalayout = "e-m:e-p270:32:32-p271:32:32-p272:64:64-i64:64-i128:128-f80:128-n8:16:32:64-S128"
target triple = "x86_64-pc-linux-gnu"

%struct.cli_matcher = type { i32, ptr, ptr, ptr, ptr, i32, i32, i32, i32, i32, %struct.cli_hash_patt, %struct.cli_hash_wild, i32, i32, i32, i32, i32, ptr, ptr, ptr, ptr, ptr, ptr, i32, i32, i8, i8, ptr, i16, i8, i32, ptr, i32, i32, i32, ptr, ptr, i32, ptr, i64, i64, ptr }
%struct.cli_hash_patt = type { [3 x %struct.cli_htu32] }
%struct.cli_htu32 = type { ptr, i64, i64, i64 }
%struct.cli_hash_wild = type { [3 x %struct.cli_sz_hash] }
%struct.cli_sz_hash = type { ptr, ptr, i32 }
%struct.cli_ac_patt = type { ptr, ptr, [3 x i16], [3 x i16], i32, i32, i32, [3 x i32], [2 x i16], ptr, ptr, [2 x i16], [2 x i16], i16, i16, i16, i16, ptr, i16, i16, [4 x i32], i32, i32, i32, i8, i8 }
%struct.cli_ac_data = type { ptr, i32, i32, i32, ptr, ptr, ptr, ptr, ptr, ptr, [32 x i32], ptr, i32 }
%struct.cli_target_info = type { i64, %struct.cli_exe_info, i32 }
%struct.cli_exe_info = type { ptr, i32, i32, i16, i32, i32, %struct.cli_hashset, i32, i32, i32, i32, i32, i32, i32, i32, i32, %struct.pe_image_file_hdr, %union.anon, [16 x %struct.pe_image_data_dir] }
%struct.cli_hashset = type { ptr, ptr, ptr, i32, i32, i32, i32 }
%struct.pe_image_file_hdr = type { i32, i16, i16, i32, i32, i32, i16, i16 }
%union.anon = type { %struct.pe_image_optional_hdr64 }
%struct.pe_image_optional_hdr64 = type { i16, i8, i8, i32, i32, i32, i32, i32, i64, i32, i32, i16, i16, i16, i16, i16, i16, i32, i32, i32, i32, i16, i16, i64, i64, i64, i64, i32, i32 }
%struct.pe_image_data_dir = type { i32, i32 }

@.str.29 = private unnamed_addr constant [68 x i8] c"cli_ac_caloff: Can't calculate relative offset in signature for %s\0A\00", align 1

; Function Attrs: nounwind uwtable
define i32 @cli_ac_caloff(ptr noundef %0, ptr noundef %1, ptr noundef %2) #0 {
  %4 = alloca i32, align 4
  %5 = alloca ptr, align 8
  %6 = alloca ptr, align 8
  %7 = alloca ptr, align 8
  %8 = alloca i32, align 4
  %9 = alloca i32, align 4
  %10 = alloca ptr, align 8
  %11 = alloca i32, align 4
  store ptr %0, ptr %5, align 8, !tbaa !3
  store ptr %1, ptr %6, align 8, !tbaa !88
  store ptr %2, ptr %7, align 8, !tbaa !106
  call void @llvm.lifetime.start.p0(i64 4, ptr %8) #16
  call void @llvm.lifetime.start.p0(i64 4, ptr %9) #16
  call void @llvm.lifetime.start.p0(i64 8, ptr %10) #16
  %12 = load ptr, ptr %7, align 8, !tbaa !106
  %13 = icmp ne ptr %12, null
  br i1 %13, label %14, label %20

14:                                               ; preds = %3
  %15 = load ptr, ptr %7, align 8, !tbaa !106
  %16 = getelementptr inbounds nuw %struct.cli_target_info, ptr %15, i32 0, i32 1
  %17 = getelementptr inbounds nuw %struct.cli_exe_info, ptr %16, i32 0, i32 6
  %18 = load ptr, ptr %6, align 8, !tbaa !88
  %19 = getelementptr inbounds nuw %struct.cli_ac_data, ptr %18, i32 0, i32 11
  store ptr %17, ptr %19, align 8, !tbaa !108
  br label %20

20:                                               ; preds = %14, %3
  store i32 0, ptr %9, align 4, !tbaa !49
  br label %21

21:                                               ; preds = %121, %20
  %22 = load i32, ptr %9, align 4, !tbaa !49
  %23 = load ptr, ptr %5, align 8, !tbaa !3
  %24 = getelementptr inbounds nuw %struct.cli_matcher, ptr %23, i32 0, i32 23
  %25 = load i32, ptr %24, align 8, !tbaa !109
  %26 = icmp ult i32 %22, %25
  br i1 %26, label %27, label %124

27:                                               ; preds = %21
  %28 = load ptr, ptr %5, align 8, !tbaa !3
  %29 = getelementptr inbounds nuw %struct.cli_matcher, ptr %28, i32 0, i32 22
  %30 = load ptr, ptr %29, align 8, !tbaa !65
  %31 = load i32, ptr %9, align 4, !tbaa !49
  %32 = zext i32 %31 to i64
  %33 = getelementptr inbounds nuw ptr, ptr %30, i64 %32
  %34 = load ptr, ptr %33, align 8, !tbaa !8
  store ptr %34, ptr %10, align 8, !tbaa !8
  %35 = load ptr, ptr %7, align 8, !tbaa !106
  %36 = icmp ne ptr %35, null
  br i1 %36, label %46, label %37

37:                                               ; preds = %27
  %38 = load ptr, ptr %6, align 8, !tbaa !88
  %39 = getelementptr inbounds nuw %struct.cli_ac_data, ptr %38, i32 0, i32 9
  %40 = load ptr, ptr %39, align 8, !tbaa !96
  %41 = load ptr, ptr %10, align 8, !tbaa !8
  %42 = getelementptr inbounds nuw %struct.cli_ac_patt, ptr %41, i32 0, i32 21
  %43 = load i32, ptr %42, align 4, !tbaa !110
  %44 = zext i32 %43 to i64
  %45 = getelementptr inbounds nuw i32, ptr %40, i64 %44
  store i32 -2, ptr %45, align 4, !tbaa !49
  br label %120

46:                                               ; preds = %27
  %47 = load ptr, ptr %7, align 8, !tbaa !106
  %48 = load ptr, ptr %5, align 8, !tbaa !3
  %49 = getelementptr inbounds nuw %struct.cli_matcher, ptr %48, i32 0, i32 0
  %50 = load i32, ptr %49, align 8, !tbaa !51
  %51 = load ptr, ptr %10, align 8, !tbaa !8
  %52 = getelementptr inbounds nuw %struct.cli_ac_patt, ptr %51, i32 0, i32 20
  %53 = getelementptr inbounds [4 x i32], ptr %52, i64 0, i64 0
  %54 = load ptr, ptr %6, align 8, !tbaa !88
  %55 = getelementptr inbounds nuw %struct.cli_ac_data, ptr %54, i32 0, i32 9
  %56 = load ptr, ptr %55, align 8, !tbaa !96
  %57 = load ptr, ptr %10, align 8, !tbaa !8
  %58 = getelementptr inbounds nuw %struct.cli_ac_patt, ptr %57, i32 0, i32 21
  %59 = load i32, ptr %58, align 4, !tbaa !110
  %60 = zext i32 %59 to i64
  %61 = getelementptr inbounds nuw i32, ptr %56, i64 %60
  %62 = load ptr, ptr %6, align 8, !tbaa !88
  %63 = getelementptr inbounds nuw %struct.cli_ac_data, ptr %62, i32 0, i32 9
  %64 = load ptr, ptr %63, align 8, !tbaa !96
  %65 = load ptr, ptr %10, align 8, !tbaa !8
  %66 = getelementptr inbounds nuw %struct.cli_ac_patt, ptr %65, i32 0, i32 22
  %67 = load i32, ptr %66, align 8, !tbaa !111
  %68 = zext i32 %67 to i64
  %69 = getelementptr inbounds nuw i32, ptr %64, i64 %68
  %70 = call i32 @cli_caloff(ptr noundef null, ptr noundef %47, i32 noundef %50, ptr noundef %53, ptr noundef %61, ptr noundef %69)
  store i32 %70, ptr %8, align 4, !tbaa !49
  %71 = icmp ne i32 0, %70
  br i1 %71, label %72, label %77

72:                                               ; preds = %46
  %73 = load ptr, ptr %10, align 8, !tbaa !8
  %74 = getelementptr inbounds nuw %struct.cli_ac_patt, ptr %73, i32 0, i32 9
  %75 = load ptr, ptr %74, align 8, !tbaa !63
  call void (ptr, ...) @cli_errmsg(ptr noundef @.str.29, ptr noundef %75)
  %76 = load i32, ptr %8, align 4, !tbaa !49
  store i32 %76, ptr %4, align 4
  store i32 1, ptr %11, align 4
  br label %125

77:                                               ; preds = %46
  %78 = load ptr, ptr %6, align 8, !tbaa !88
  %79 = getelementptr inbounds nuw %struct.cli_ac_data, ptr %78, i32 0, i32 9
  %80 = load ptr, ptr %79, align 8, !tbaa !96
  %81 = load ptr, ptr %10, align 8, !tbaa !8
  %82 = getelementptr inbounds nuw %struct.cli_ac_patt, ptr %81, i32 0, i32 21
  %83 = load i32, ptr %82, align 4, !tbaa !110
  %84 = zext i32 %83 to i64
  %85 = getelementptr inbounds nuw i32, ptr %80, i64 %84
  %86 = load i32, ptr %85, align 4, !tbaa !49
  %87 = icmp ne i32 %86, -2
  br i1 %87, label %88, label %118

88:                                               ; preds = %77
  %89 = load ptr, ptr %6, align 8, !tbaa !88
  %90 = getelementptr inbounds nuw %struct.cli_ac_data, ptr %89, i32 0, i32 9
  %91 = load ptr, ptr %90, align 8, !tbaa !96
  %92 = load ptr, ptr %10, align 8, !tbaa !8
  %93 = getelementptr inbounds nuw %struct.cli_ac_patt, ptr %92, i32 0, i32 21
  %94 = load i32, ptr %93, align 4, !tbaa !110
  %95 = zext i32 %94 to i64
  %96 = getelementptr inbounds nuw i32, ptr %91, i64 %95
  %97 = load i32, ptr %96, align 4, !tbaa !49
  %98 = load ptr, ptr %10, align 8, !tbaa !8
  %99 = getelementptr inbounds nuw %struct.cli_ac_patt, ptr %98, i32 0, i32 2
  %100 = getelementptr inbounds [3 x i16], ptr %99, i64 0, i64 1
  %101 = load i16, ptr %100, align 2, !tbaa !30
  %102 = zext i16 %101 to i32
  %103 = add i32 %97, %102
  %104 = zext i32 %103 to i64
  %105 = load ptr, ptr %7, align 8, !tbaa !106
  %106 = getelementptr inbounds nuw %struct.cli_target_info, ptr %105, i32 0, i32 0
  %107 = load i64, ptr %106, align 8, !tbaa !112
  %108 = icmp sgt i64 %104, %107
  br i1 %108, label %109, label %118

109:                                              ; preds = %88
  %110 = load ptr, ptr %6, align 8, !tbaa !88
  %111 = getelementptr inbounds nuw %struct.cli_ac_data, ptr %110, i32 0, i32 9
  %112 = load ptr, ptr %111, align 8, !tbaa !96
  %113 = load ptr, ptr %10, align 8, !tbaa !8
  %114 = getelementptr inbounds nuw %struct.cli_ac_patt, ptr %113, i32 0, i32 21
  %115 = load i32, ptr %114, align 4, !tbaa !110
  %116 = zext i32 %115 to i64
  %117 = getelementptr inbounds nuw i32, ptr %112, i64 %116
  store i32 -2, ptr %117, align 4, !tbaa !49
  br label %118

118:                                              ; preds = %109, %88, %77
  br label %119

119:                                              ; preds = %118
  br label %120

120:                                              ; preds = %119, %37
  br label %121

121:                                              ; preds = %120
  %122 = load i32, ptr %9, align 4, !tbaa !49
  %123 = add i32 %122, 1
  store i32 %123, ptr %9, align 4, !tbaa !49
  br label %21

124:                                              ; preds = %21
  store i32 0, ptr %4, align 4
  store i32 1, ptr %11, align 4
  br label %125

125:                                              ; preds = %124, %72
  call void @llvm.lifetime.end.p0(i64 8, ptr %10) #16
  call void @llvm.lifetime.end.p0(i64 4, ptr %9) #16
  call void @llvm.lifetime.end.p0(i64 4, ptr %8) #16
  %126 = load i32, ptr %4, align 4
  ret i32 %126
}