; Function Attrs: nounwind uwtable
define i32 @cli_ac_caloff(ptr noundef readonly captures(none) %0, ptr noundef captures(none) %1, ptr noundef %2) local_unnamed_addr #0 {
  %.not = icmp eq ptr %2, null
  br i1 %.not, label %4, label %.thread

4:                                                ; preds = %3
  %5 = getelementptr inbounds nuw i8, ptr %0, i64 304
  %6 = load i32, ptr %5, align 8, !tbaa !102
  %.not36 = icmp eq i32 %6, 0
  br i1 %.not36, label %.loopexit, label %.lr.ph.split.us

.thread:                                          ; preds = %3
  %7 = getelementptr inbounds nuw i8, ptr %2, i64 40
  %8 = getelementptr inbounds nuw i8, ptr %1, i64 200
  store ptr %7, ptr %8, align 8, !tbaa !103
  %9 = getelementptr inbounds nuw i8, ptr %0, i64 304
  %10 = load i32, ptr %9, align 8, !tbaa !102
  %.not3645 = icmp eq i32 %10, 0
  br i1 %.not3645, label %.loopexit, label %.lr.ph.split.preheader

.lr.ph.split.preheader:                           ; preds = %.thread
  %11 = getelementptr inbounds nuw i8, ptr %0, i64 296
  %12 = getelementptr inbounds nuw i8, ptr %1, i64 64
  %.pre = load ptr, ptr %12, align 8, !tbaa !92
  br label %.lr.ph.split

.lr.ph.split.us:                                  ; preds = %4
  %13 = getelementptr inbounds nuw i8, ptr %0, i64 296
  %14 = getelementptr inbounds nuw i8, ptr %1, i64 64
  %15 = load ptr, ptr %13, align 8, !tbaa !71
  %16 = load ptr, ptr %14, align 8, !tbaa !92
  br label %17

17:                                               ; preds = %17, %.lr.ph.split.us
  %indvars.iv42 = phi i64 [ %indvars.iv.next43, %17 ], [ 0, %.lr.ph.split.us ]
  %18 = getelementptr inbounds nuw ptr, ptr %15, i64 %indvars.iv42
  %19 = load ptr, ptr %18, align 8, !tbaa !35
  %20 = getelementptr inbounds nuw i8, ptr %19, i64 116
  %21 = load i32, ptr %20, align 4, !tbaa !104
  %22 = zext i32 %21 to i64
  %23 = getelementptr inbounds nuw i32, ptr %16, i64 %22
  store i32 -2, ptr %23, align 4, !tbaa !55
  %indvars.iv.next43 = add nuw nsw i64 %indvars.iv42, 1
  %24 = load i32, ptr %5, align 8, !tbaa !102
  %25 = zext i32 %24 to i64
  %26 = icmp samesign ult i64 %indvars.iv.next43, %25
  br i1 %26, label %17, label %.loopexit

.lr.ph.split:                                     ; preds = %.lr.ph.split.preheader, %60
  %27 = phi ptr [ %.pre, %.lr.ph.split.preheader ], [ %46, %60 ]
  %indvars.iv = phi i64 [ 0, %.lr.ph.split.preheader ], [ %indvars.iv.next, %60 ]
  %28 = load ptr, ptr %11, align 8, !tbaa !71
  %29 = getelementptr inbounds nuw ptr, ptr %28, i64 %indvars.iv
  %30 = load ptr, ptr %29, align 8, !tbaa !35
  %31 = load i32, ptr %0, align 8, !tbaa !58
  %32 = getelementptr inbounds nuw i8, ptr %30, i64 100
  %33 = getelementptr inbounds nuw i8, ptr %30, i64 116
  %34 = load i32, ptr %33, align 4, !tbaa !104
  %35 = zext i32 %34 to i64
  %36 = getelementptr inbounds nuw i32, ptr %27, i64 %35
  %37 = getelementptr inbounds nuw i8, ptr %30, i64 120
  %38 = load i32, ptr %37, align 8, !tbaa !105
  %39 = zext i32 %38 to i64
  %40 = getelementptr inbounds nuw i32, ptr %27, i64 %39
  %41 = tail call i32 @cli_caloff(ptr noundef null, ptr noundef nonnull %2, i32 noundef %31, ptr noundef nonnull %32, ptr noundef %36, ptr noundef %40) #19
  %.not32 = icmp eq i32 %41, 0
  br i1 %.not32, label %45, label %42

42:                                               ; preds = %.lr.ph.split
  %43 = getelementptr inbounds nuw i8, ptr %30, i64 56
  %44 = load ptr, ptr %43, align 8, !tbaa !69
  tail call void (ptr, ...) @cli_errmsg(ptr noundef nonnull @.str.29, ptr noundef %44) #19
  br label %.loopexit

45:                                               ; preds = %.lr.ph.split
  %46 = load ptr, ptr %12, align 8, !tbaa !92
  %47 = load i32, ptr %33, align 4, !tbaa !104
  %48 = zext i32 %47 to i64
  %49 = getelementptr inbounds nuw i32, ptr %46, i64 %48
  %50 = load i32, ptr %49, align 4, !tbaa !55
  %.not33 = icmp eq i32 %50, -2
  br i1 %.not33, label %60, label %51

51:                                               ; preds = %45
  %52 = getelementptr inbounds nuw i8, ptr %30, i64 18
  %53 = load i16, ptr %52, align 2, !tbaa !26
  %54 = zext i16 %53 to i32
  %55 = add i32 %50, %54
  %56 = zext i32 %55 to i64
  %57 = load i64, ptr %2, align 8, !tbaa !106
  %58 = icmp slt i64 %57, %56
  br i1 %58, label %59, label %60

59:                                               ; preds = %51
  store i32 -2, ptr %49, align 4, !tbaa !55
  br label %60

60:                                               ; preds = %45, %51, %59
  %indvars.iv.next = add nuw nsw i64 %indvars.iv, 1
  %61 = load i32, ptr %9, align 8, !tbaa !102
  %62 = zext i32 %61 to i64
  %63 = icmp samesign ult i64 %indvars.iv.next, %62
  br i1 %63, label %.lr.ph.split, label %.loopexit

.loopexit:                                        ; preds = %60, %17, %.thread, %4, %42
  %.0 = phi i32 [ %41, %42 ], [ 0, %4 ], [ 0, %.thread ], [ 0, %17 ], [ 0, %60 ]
  ret i32 %.0
}